; Function Attrs: mustprogress uwtable
define noundef i32 @_ZNK7Imf_3_419DeepTiledOutputFile9numXTilesEi(ptr noundef nonnull readonly align 8 captures(none) dereferenceable(16) %0, i32 noundef %1) local_unnamed_addr #5 align 2 personality ptr @__gxx_personality_v0 {
  %3 = alloca %"class.std::__cxx11::basic_stringstream", align 8
  %4 = icmp slt i32 %1, 0
  br i1 %4, label %10, label %5

5:                                                ; preds = %2
  %6 = getelementptr inbounds nuw i8, ptr %0, i64 8
  %7 = load ptr, ptr %6, align 8, !tbaa !126
  %8 = getelementptr inbounds nuw i8, ptr %7, i64 212
  %9 = load i32, ptr %8, align 4, !tbaa !162
  %.not = icmp slt i32 %1, %9
  br i1 %.not, label %31, label %10

10:                                               ; preds = %2, %5
  tail call void @_Z13iex_debugTrapv()
  call void @llvm.lifetime.start.p0(i64 392, ptr nonnull %3) #25
  call void @_ZNSt7__cxx1118basic_stringstreamIcSt11char_traitsIcESaIcEEC1Ev(ptr noundef nonnull align 8 dereferenceable(128) %3)
  %11 = getelementptr inbounds nuw i8, ptr %3, i64 16
  %12 = invoke noundef nonnull align 8 dereferenceable(8) ptr @_ZSt16__ostream_insertIcSt11char_traitsIcEERSt13basic_ostreamIT_T0_ES6_PKS3_l(ptr noundef nonnull align 8 dereferenceable(8) %11, ptr noundef nonnull @.str.38, i64 noundef 41)
          to label %_ZStlsISt11char_traitsIcEERSt13basic_ostreamIcT_ES5_PKc.exit unwind label %26

_ZStlsISt11char_traitsIcEERSt13basic_ostreamIcT_ES5_PKc.exit: ; preds = %10
  %13 = getelementptr inbounds nuw i8, ptr %0, i64 8
  %14 = load ptr, ptr %13, align 8, !tbaa !126
  %15 = getelementptr inbounds nuw i8, ptr %14, i64 448
  %16 = load ptr, ptr %15, align 8, !tbaa !72
  %17 = getelementptr inbounds nuw i8, ptr %16, i64 40
  %18 = load ptr, ptr %17, align 8, !tbaa !130
  %19 = invoke noundef ptr @_ZNK7Imf_3_47OStream8fileNameEv(ptr noundef nonnull align 8 dereferenceable(40) %18)
          to label %20 unwind label %26

20:                                               ; preds = %_ZStlsISt11char_traitsIcEERSt13basic_ostreamIcT_ES5_PKc.exit
  %21 = invoke noundef nonnull align 8 dereferenceable(8) ptr @_ZStlsISt11char_traitsIcEERSt13basic_ostreamIcT_ES5_PKc(ptr noundef nonnull align 8 dereferenceable(8) %11, ptr noundef %19)
          to label %22 unwind label %26

22:                                               ; preds = %20
  %23 = invoke noundef nonnull align 8 dereferenceable(8) ptr @_ZSt16__ostream_insertIcSt11char_traitsIcEERSt13basic_ostreamIT_T0_ES6_PKS3_l(ptr noundef nonnull align 8 dereferenceable(8) %21, ptr noundef nonnull @.str.39, i64 noundef 35)
          to label %_ZStlsISt11char_traitsIcEERSt13basic_ostreamIcT_ES5_PKc.exit8 unwind label %26

_ZStlsISt11char_traitsIcEERSt13basic_ostreamIcT_ES5_PKc.exit8: ; preds = %22
  %24 = call ptr @__cxa_allocate_exception(i64 72) #25
  invoke void @_ZN7Iex_3_48LogicExcC1ERNSt7__cxx1118basic_stringstreamIcSt11char_traitsIcESaIcEEE(ptr noundef nonnull align 8 dereferenceable(72) %24, ptr noundef nonnull align 8 dereferenceable(128) %3)
          to label %25 unwind label %28

25:                                               ; preds = %_ZStlsISt11char_traitsIcEERSt13basic_ostreamIcT_ES5_PKc.exit8
  invoke void @__cxa_throw(ptr nonnull %24, ptr nonnull @_ZTIN7Iex_3_48LogicExcE, ptr nonnull @_ZN7Iex_3_48LogicExcD1Ev) #30
          to label %37 unwind label %26

26:                                               ; preds = %22, %10, %25, %20, %_ZStlsISt11char_traitsIcEERSt13basic_ostreamIcT_ES5_PKc.exit
  %27 = landingpad { ptr, i32 }
          cleanup
  br label %30

28:                                               ; preds = %_ZStlsISt11char_traitsIcEERSt13basic_ostreamIcT_ES5_PKc.exit8
  %29 = landingpad { ptr, i32 }
          cleanup
  call void @__cxa_free_exception(ptr nonnull %24) #25
  br label %30

30:                                               ; preds = %28, %26
  %.pn = phi { ptr, i32 } [ %27, %26 ], [ %29, %28 ]
  call void @_ZNSt7__cxx1118basic_stringstreamIcSt11char_traitsIcESaIcEED1Ev(ptr noundef nonnull align 8 dereferenceable(128) %3) #25
  call void @llvm.lifetime.end.p0(i64 392, ptr nonnull %3) #25
  resume { ptr, i32 } %.pn

31:                                               ; preds = %5
  %32 = getelementptr inbounds nuw i8, ptr %7, i64 224
  %33 = load ptr, ptr %32, align 8, !tbaa !94
  %34 = zext nneg i32 %1 to i64
  %35 = getelementptr inbounds nuw i32, ptr %33, i64 %34
  %36 = load i32, ptr %35, align 4, !tbaa !142
  ret i32 %36

37:                                               ; preds = %25
  unreachable
}